target datalayout = "e-m:e-p270:32:32-p271:32:32-p272:64:64-i64:64-i128:128-f80:128-n8:16:32:64-S128"
target triple = "x86_64-pc-linux-gnu"

%struct.archive_read = type { %struct.archive, ptr, i32, i64, i64, %struct.archive_read_client, [16 x %struct.archive_read_filter_bidder], ptr, i32, i64, i32, i32, [16 x %struct.archive_format_descriptor], ptr, ptr, ptr, %struct.anon }
%struct.archive = type { i32, i32, ptr, i32, ptr, i32, i32, ptr, %struct.archive_string, ptr, i32, i32, ptr, ptr, i64, i64, i64, i8, i64 }
%struct.archive_string = type { ptr, i64, i64 }
%struct.archive_read_client = type { ptr, ptr, ptr, ptr, ptr, ptr, i32, i32, i64, ptr }
%struct.archive_read_filter_bidder = type { ptr, ptr, ptr }
%struct.archive_format_descriptor = type { ptr, ptr, ptr, ptr, ptr, ptr, ptr, ptr, ptr, ptr, ptr }
%struct.anon = type { ptr, ptr, i32, ptr, ptr }
%struct.rar5 = type { i32, i32, i32, i32, i64, i64, %struct.generic_header, %struct.main_header, %struct.comp_state, %struct.file_header, %struct.bit_reader, %struct.multivolume, %struct.compressed_block_header, i32, i32 }
%struct.generic_header = type { i8, i32, i32 }
%struct.main_header = type { i8, i32 }
%struct.comp_state = type { i8, i32, i32, i32, i64, ptr, ptr, ptr, i64, i64, i64, i64, i64, i64, i32, %struct.decode_table, %struct.decode_table, %struct.decode_table, %struct.decode_table, %struct.decode_table, %struct.cdeque, i64, i64, [4 x i32], [2 x %struct.data_ready] }
%struct.decode_table = type { i32, [16 x i32], [16 x i32], i32, [1024 x i8], [1024 x i16], [306 x i16] }
%struct.cdeque = type { i16, i16, i16, i16, ptr }
%struct.data_ready = type { i8, ptr, i64, i64 }
%struct.file_header = type { i64, i64, i64, i64, i8, i64, i64, i64, i32, i32, i32, [32 x i8], %struct.blake2sp_state__, i8, i64, i64, i64 }
%struct.blake2sp_state__ = type { [8 x [1 x %struct.blake2s_state__]], [1 x %struct.blake2s_state__], [512 x i8], i64, i64 }
%struct.blake2s_state__ = type { [8 x i32], [2 x i32], [2 x i32], [64 x i8], i64, i64, i8 }
%struct.bit_reader = type { i8, i32 }
%struct.multivolume = type { i32, ptr }
%struct.compressed_block_header = type { i8, i8 }

@.str.53 = private unnamed_addr constant [55 x i8] c"Premature end of stream during extraction of data (#2)\00", align 1

; Function Attrs: nounwind uwtable
define internal void @skip_bits(ptr noundef %0, i32 noundef %1) #0 {
  %3 = alloca ptr, align 8
  %4 = alloca i32, align 4
  %5 = alloca i32, align 4
  store ptr %0, ptr %3, align 8, !tbaa !11
  store i32 %1, ptr %4, align 4, !tbaa !9
  call void @llvm.lifetime.start.p0(i64 4, ptr %5) #11
  %6 = load ptr, ptr %3, align 8, !tbaa !11
  %7 = getelementptr inbounds nuw %struct.rar5, ptr %6, i32 0, i32 10
  %8 = getelementptr inbounds nuw %struct.bit_reader, ptr %7, i32 0, i32 0
  %9 = load i8, ptr %8, align 8, !tbaa !135
  %10 = sext i8 %9 to i32
  %11 = load i32, ptr %4, align 4, !tbaa !9
  %12 = add nsw i32 %10, %11
  store i32 %12, ptr %5, align 4, !tbaa !9
  %13 = load i32, ptr %5, align 4, !tbaa !9
  %14 = ashr i32 %13, 3
  %15 = load ptr, ptr %3, align 8, !tbaa !11
  %16 = getelementptr inbounds nuw %struct.rar5, ptr %15, i32 0, i32 10
  %17 = getelementptr inbounds nuw %struct.bit_reader, ptr %16, i32 0, i32 1
  %18 = load i32, ptr %17, align 4, !tbaa !134
  %19 = add nsw i32 %18, %14
  store i32 %19, ptr %17, align 4, !tbaa !134
  %20 = load i32, ptr %5, align 4, !tbaa !9
  %21 = and i32 %20, 7
  %22 = trunc i32 %21 to i8
  %23 = load ptr, ptr %3, align 8, !tbaa !11
  %24 = getelementptr inbounds nuw %struct.rar5, ptr %23, i32 0, i32 10
  %25 = getelementptr inbounds nuw %struct.bit_reader, ptr %24, i32 0, i32 0
  store i8 %22, ptr %25, align 8, !tbaa !135
  call void @llvm.lifetime.end.p0(i64 4, ptr %5) #11
  ret void
}

; Function Attrs: nounwind uwtable
define internal i32 @read_bits_16(ptr noundef %0, ptr noundef %1, ptr noundef %2, ptr noundef %3) #0 {
  %5 = alloca i32, align 4
  %6 = alloca ptr, align 8
  %7 = alloca ptr, align 8
  %8 = alloca ptr, align 8
  %9 = alloca ptr, align 8
  %10 = alloca i32, align 4
  store ptr %0, ptr %6, align 8, !tbaa !13
  store ptr %1, ptr %7, align 8, !tbaa !11
  store ptr %2, ptr %8, align 8, !tbaa !33
  store ptr %3, ptr %9, align 8, !tbaa !157
  %11 = load ptr, ptr %7, align 8, !tbaa !11
  %12 = getelementptr inbounds nuw %struct.rar5, ptr %11, i32 0, i32 10
  %13 = getelementptr inbounds nuw %struct.bit_reader, ptr %12, i32 0, i32 1
  %14 = load i32, ptr %13, align 4, !tbaa !134
  %15 = sext i32 %14 to i64
  %16 = load ptr, ptr %7, align 8, !tbaa !11
  %17 = getelementptr inbounds nuw %struct.rar5, ptr %16, i32 0, i32 8
  %18 = getelementptr inbounds nuw %struct.comp_state, ptr %17, i32 0, i32 13
  %19 = load i64, ptr %18, align 8, !tbaa !133
  %20 = icmp sge i64 %15, %19
  br i1 %20, label %21, label %24

21:                                               ; preds = %4
  %22 = load ptr, ptr %6, align 8, !tbaa !13
  %23 = getelementptr inbounds nuw %struct.archive_read, ptr %22, i32 0, i32 0
  call void (ptr, i32, ptr, ...) @archive_set_error(ptr noundef %23, i32 noundef 22, ptr noundef @.str.53)
  store i32 -30, ptr %5, align 4
  br label %72

24:                                               ; preds = %4
  call void @llvm.lifetime.start.p0(i64 4, ptr %10) #11
  %25 = load ptr, ptr %8, align 8, !tbaa !33
  %26 = load ptr, ptr %7, align 8, !tbaa !11
  %27 = getelementptr inbounds nuw %struct.rar5, ptr %26, i32 0, i32 10
  %28 = getelementptr inbounds nuw %struct.bit_reader, ptr %27, i32 0, i32 1
  %29 = load i32, ptr %28, align 4, !tbaa !134
  %30 = sext i32 %29 to i64
  %31 = getelementptr inbounds i8, ptr %25, i64 %30
  %32 = load i8, ptr %31, align 1, !tbaa !75
  %33 = zext i8 %32 to i32
  %34 = shl i32 %33, 16
  store i32 %34, ptr %10, align 4, !tbaa !9
  %35 = load ptr, ptr %8, align 8, !tbaa !33
  %36 = load ptr, ptr %7, align 8, !tbaa !11
  %37 = getelementptr inbounds nuw %struct.rar5, ptr %36, i32 0, i32 10
  %38 = getelementptr inbounds nuw %struct.bit_reader, ptr %37, i32 0, i32 1
  %39 = load i32, ptr %38, align 4, !tbaa !134
  %40 = add nsw i32 %39, 1
  %41 = sext i32 %40 to i64
  %42 = getelementptr inbounds i8, ptr %35, i64 %41
  %43 = load i8, ptr %42, align 1, !tbaa !75
  %44 = zext i8 %43 to i32
  %45 = shl i32 %44, 8
  %46 = load i32, ptr %10, align 4, !tbaa !9
  %47 = or i32 %46, %45
  store i32 %47, ptr %10, align 4, !tbaa !9
  %48 = load ptr, ptr %8, align 8, !tbaa !33
  %49 = load ptr, ptr %7, align 8, !tbaa !11
  %50 = getelementptr inbounds nuw %struct.rar5, ptr %49, i32 0, i32 10
  %51 = getelementptr inbounds nuw %struct.bit_reader, ptr %50, i32 0, i32 1
  %52 = load i32, ptr %51, align 4, !tbaa !134
  %53 = add nsw i32 %52, 2
  %54 = sext i32 %53 to i64
  %55 = getelementptr inbounds i8, ptr %48, i64 %54
  %56 = load i8, ptr %55, align 1, !tbaa !75
  %57 = zext i8 %56 to i32
  %58 = load i32, ptr %10, align 4, !tbaa !9
  %59 = or i32 %58, %57
  store i32 %59, ptr %10, align 4, !tbaa !9
  %60 = load ptr, ptr %7, align 8, !tbaa !11
  %61 = getelementptr inbounds nuw %struct.rar5, ptr %60, i32 0, i32 10
  %62 = getelementptr inbounds nuw %struct.bit_reader, ptr %61, i32 0, i32 0
  %63 = load i8, ptr %62, align 8, !tbaa !135
  %64 = sext i8 %63 to i32
  %65 = sub nsw i32 8, %64
  %66 = load i32, ptr %10, align 4, !tbaa !9
  %67 = ashr i32 %66, %65
  store i32 %67, ptr %10, align 4, !tbaa !9
  %68 = load i32, ptr %10, align 4, !tbaa !9
  %69 = and i32 %68, 65535
  %70 = trunc i32 %69 to i16
  %71 = load ptr, ptr %9, align 8, !tbaa !157
  store i16 %70, ptr %71, align 2, !tbaa !143
  store i32 0, ptr %5, align 4
  call void @llvm.lifetime.end.p0(i64 4, ptr %10) #11
  br label %72

72:                                               ; preds = %24, %21
  %73 = load i32, ptr %5, align 4
  ret i32 %73
}

; Function Attrs: inlinehint nounwind uwtable
define internal ptr @get_context(ptr noundef %0) #2 {
  %2 = alloca ptr, align 8
  store ptr %0, ptr %2, align 8, !tbaa !13
  %3 = load ptr, ptr %2, align 8, !tbaa !13
  %4 = getelementptr inbounds nuw %struct.archive_read, ptr %3, i32 0, i32 13
  %5 = load ptr, ptr %4, align 8, !tbaa !52
  %6 = getelementptr inbounds nuw %struct.archive_format_descriptor, ptr %5, i32 0, i32 0
  %7 = load ptr, ptr %6, align 8, !tbaa !66
  ret ptr %7
}

; Function Attrs: nounwind uwtable
define internal i32 @decode_number(ptr noundef %0, ptr noundef %1, ptr noundef %2, ptr noundef %3) #0 {
  %5 = alloca i32, align 4
  %6 = alloca ptr, align 8
  %7 = alloca ptr, align 8
  %8 = alloca ptr, align 8
  %9 = alloca ptr, align 8
  %10 = alloca i32, align 4
  %11 = alloca i32, align 4
  %12 = alloca i32, align 4
  %13 = alloca i32, align 4
  %14 = alloca i16, align 2
  %15 = alloca i32, align 4
  %16 = alloca ptr, align 8
  %17 = alloca i32, align 4
  %18 = alloca i32, align 4
  store ptr %0, ptr %6, align 8, !tbaa !13
  store ptr %1, ptr %7, align 8, !tbaa !148
  store ptr %2, ptr %8, align 8, !tbaa !33
  store ptr %3, ptr %9, align 8, !tbaa !157
  call void @llvm.lifetime.start.p0(i64 4, ptr %10) #11
  call void @llvm.lifetime.start.p0(i64 4, ptr %11) #11
  call void @llvm.lifetime.start.p0(i64 4, ptr %12) #11
  call void @llvm.lifetime.start.p0(i64 4, ptr %13) #11
  call void @llvm.lifetime.start.p0(i64 2, ptr %14) #11
  call void @llvm.lifetime.start.p0(i64 4, ptr %15) #11
  call void @llvm.lifetime.start.p0(i64 8, ptr %16) #11
  %19 = load ptr, ptr %6, align 8, !tbaa !13
  %20 = call ptr @get_context(ptr noundef %19)
  store ptr %20, ptr %16, align 8, !tbaa !11
  %21 = load ptr, ptr %6, align 8, !tbaa !13
  %22 = load ptr, ptr %16, align 8, !tbaa !11
  %23 = load ptr, ptr %8, align 8, !tbaa !33
  %24 = call i32 @read_bits_16(ptr noundef %21, ptr noundef %22, ptr noundef %23, ptr noundef %14)
  store i32 %24, ptr %13, align 4, !tbaa !9
  %25 = icmp ne i32 0, %24
  br i1 %25, label %26, label %28

26:                                               ; preds = %4
  %27 = load i32, ptr %13, align 4, !tbaa !9
  store i32 %27, ptr %5, align 4
  store i32 1, ptr %17, align 4
  br label %130

28:                                               ; preds = %4
  %29 = load i16, ptr %14, align 2, !tbaa !143
  %30 = zext i16 %29 to i32
  %31 = and i32 %30, 65534
  %32 = trunc i32 %31 to i16
  store i16 %32, ptr %14, align 2, !tbaa !143
  %33 = load i16, ptr %14, align 2, !tbaa !143
  %34 = zext i16 %33 to i32
  %35 = load ptr, ptr %7, align 8, !tbaa !148
  %36 = getelementptr inbounds nuw %struct.decode_table, ptr %35, i32 0, i32 1
  %37 = load ptr, ptr %7, align 8, !tbaa !148
  %38 = getelementptr inbounds nuw %struct.decode_table, ptr %37, i32 0, i32 3
  %39 = load i32, ptr %38, align 4, !tbaa !151
  %40 = zext i32 %39 to i64
  %41 = getelementptr inbounds nuw [16 x i32], ptr %36, i64 0, i64 %40
  %42 = load i32, ptr %41, align 4, !tbaa !9
  %43 = icmp slt i32 %34, %42
  br i1 %43, label %44, label %67

44:                                               ; preds = %28
  call void @llvm.lifetime.start.p0(i64 4, ptr %18) #11
  %45 = load i16, ptr %14, align 2, !tbaa !143
  %46 = zext i16 %45 to i32
  %47 = load ptr, ptr %7, align 8, !tbaa !148
  %48 = getelementptr inbounds nuw %struct.decode_table, ptr %47, i32 0, i32 3
  %49 = load i32, ptr %48, align 4, !tbaa !151
  %50 = sub i32 16, %49
  %51 = ashr i32 %46, %50
  store i32 %51, ptr %18, align 4, !tbaa !9
  %52 = load ptr, ptr %16, align 8, !tbaa !11
  %53 = load ptr, ptr %7, align 8, !tbaa !148
  %54 = getelementptr inbounds nuw %struct.decode_table, ptr %53, i32 0, i32 4
  %55 = load i32, ptr %18, align 4, !tbaa !9
  %56 = sext i32 %55 to i64
  %57 = getelementptr inbounds [1024 x i8], ptr %54, i64 0, i64 %56
  %58 = load i8, ptr %57, align 1, !tbaa !75
  %59 = zext i8 %58 to i32
  call void @skip_bits(ptr noundef %52, i32 noundef %59)
  %60 = load ptr, ptr %7, align 8, !tbaa !148
  %61 = getelementptr inbounds nuw %struct.decode_table, ptr %60, i32 0, i32 5
  %62 = load i32, ptr %18, align 4, !tbaa !9
  %63 = sext i32 %62 to i64
  %64 = getelementptr inbounds [1024 x i16], ptr %61, i64 0, i64 %63
  %65 = load i16, ptr %64, align 2, !tbaa !143
  %66 = load ptr, ptr %9, align 8, !tbaa !157
  store i16 %65, ptr %66, align 2, !tbaa !143
  store i32 0, ptr %5, align 4
  store i32 1, ptr %17, align 4
  call void @llvm.lifetime.end.p0(i64 4, ptr %18) #11
  br label %130

67:                                               ; preds = %28
  store i32 15, ptr %11, align 4, !tbaa !9
  %68 = load ptr, ptr %7, align 8, !tbaa !148
  %69 = getelementptr inbounds nuw %struct.decode_table, ptr %68, i32 0, i32 3
  %70 = load i32, ptr %69, align 4, !tbaa !151
  %71 = add i32 %70, 1
  store i32 %71, ptr %10, align 4, !tbaa !9
  br label %72

72:                                               ; preds = %88, %67
  %73 = load i32, ptr %10, align 4, !tbaa !9
  %74 = icmp slt i32 %73, 15
  br i1 %74, label %75, label %91

75:                                               ; preds = %72
  %76 = load i16, ptr %14, align 2, !tbaa !143
  %77 = zext i16 %76 to i32
  %78 = load ptr, ptr %7, align 8, !tbaa !148
  %79 = getelementptr inbounds nuw %struct.decode_table, ptr %78, i32 0, i32 1
  %80 = load i32, ptr %10, align 4, !tbaa !9
  %81 = sext i32 %80 to i64
  %82 = getelementptr inbounds [16 x i32], ptr %79, i64 0, i64 %81
  %83 = load i32, ptr %82, align 4, !tbaa !9
  %84 = icmp slt i32 %77, %83
  br i1 %84, label %85, label %87

85:                                               ; preds = %75
  %86 = load i32, ptr %10, align 4, !tbaa !9
  store i32 %86, ptr %11, align 4, !tbaa !9
  br label %91

87:                                               ; preds = %75
  br label %88

88:                                               ; preds = %87
  %89 = load i32, ptr %10, align 4, !tbaa !9
  %90 = add nsw i32 %89, 1
  store i32 %90, ptr %10, align 4, !tbaa !9
  br label %72, !llvm.loop !159

91:                                               ; preds = %85, %72
  %92 = load ptr, ptr %16, align 8, !tbaa !11
  %93 = load i32, ptr %11, align 4, !tbaa !9
  call void @skip_bits(ptr noundef %92, i32 noundef %93)
  %94 = load i16, ptr %14, align 2, !tbaa !143
  %95 = zext i16 %94 to i32
  %96 = load ptr, ptr %7, align 8, !tbaa !148
  %97 = getelementptr inbounds nuw %struct.decode_table, ptr %96, i32 0, i32 1
  %98 = load i32, ptr %11, align 4, !tbaa !9
  %99 = sub nsw i32 %98, 1
  %100 = sext i32 %99 to i64
  %101 = getelementptr inbounds [16 x i32], ptr %97, i64 0, i64 %100
  %102 = load i32, ptr %101, align 4, !tbaa !9
  %103 = sub nsw i32 %95, %102
  store i32 %103, ptr %12, align 4, !tbaa !9
  %104 = load i32, ptr %11, align 4, !tbaa !9
  %105 = sub nsw i32 16, %104
  %106 = load i32, ptr %12, align 4, !tbaa !9
  %107 = ashr i32 %106, %105
  store i32 %107, ptr %12, align 4, !tbaa !9
  %108 = load ptr, ptr %7, align 8, !tbaa !148
  %109 = getelementptr inbounds nuw %struct.decode_table, ptr %108, i32 0, i32 2
  %110 = load i32, ptr %11, align 4, !tbaa !9
  %111 = sext i32 %110 to i64
  %112 = getelementptr inbounds [16 x i32], ptr %109, i64 0, i64 %111
  %113 = load i32, ptr %112, align 4, !tbaa !9
  %114 = load i32, ptr %12, align 4, !tbaa !9
  %115 = add i32 %113, %114
  store i32 %115, ptr %15, align 4, !tbaa !9
  %116 = load i32, ptr %15, align 4, !tbaa !9
  %117 = load ptr, ptr %7, align 8, !tbaa !148
  %118 = getelementptr inbounds nuw %struct.decode_table, ptr %117, i32 0, i32 0
  %119 = load i32, ptr %118, align 4, !tbaa !150
  %120 = icmp uge i32 %116, %119
  br i1 %120, label %121, label %122

121:                                              ; preds = %91
  store i32 0, ptr %15, align 4, !tbaa !9
  br label %122

122:                                              ; preds = %121, %91
  %123 = load ptr, ptr %7, align 8, !tbaa !148
  %124 = getelementptr inbounds nuw %struct.decode_table, ptr %123, i32 0, i32 6
  %125 = load i32, ptr %15, align 4, !tbaa !9
  %126 = zext i32 %125 to i64
  %127 = getelementptr inbounds nuw [306 x i16], ptr %124, i64 0, i64 %126
  %128 = load i16, ptr %127, align 2, !tbaa !143
  %129 = load ptr, ptr %9, align 8, !tbaa !157
  store i16 %128, ptr %129, align 2, !tbaa !143
  store i32 0, ptr %5, align 4
  store i32 1, ptr %17, align 4
  br label %130

130:                                              ; preds = %122, %44, %26
  call void @llvm.lifetime.end.p0(i64 8, ptr %16) #11
  call void @llvm.lifetime.end.p0(i64 4, ptr %15) #11
  call void @llvm.lifetime.end.p0(i64 2, ptr %14) #11
  call void @llvm.lifetime.end.p0(i64 4, ptr %13) #11
  call void @llvm.lifetime.end.p0(i64 4, ptr %12) #11
  call void @llvm.lifetime.end.p0(i64 4, ptr %11) #11
  call void @llvm.lifetime.end.p0(i64 4, ptr %10) #11
  %131 = load i32, ptr %5, align 4
  ret i32 %131
}