; Function Attrs: nounwind uwtable
define internal fastcc range(i32 -30, 1) i32 @decode_number(ptr noundef %0, ptr noundef readonly captures(none) %1, ptr noundef readonly captures(none) %2, ptr noundef nonnull writeonly captures(none) %3) unnamed_addr #0 {
  %5 = getelementptr i8, ptr %0, i64 2072
  %.val = load ptr, ptr %5, align 8, !tbaa !31
  %.val.val = load ptr, ptr %.val, align 8, !tbaa !46
  %6 = getelementptr inbounds nuw i8, ptr %.val.val, i64 21268
  %7 = load i32, ptr %6, align 4, !tbaa !104
  %8 = sext i32 %7 to i64
  %9 = getelementptr inbounds nuw i8, ptr %.val.val, i64 144
  %10 = load i64, ptr %9, align 8, !tbaa !103
  %.not.i = icmp sgt i64 %10, %8
  br i1 %.not.i, label %11, label %read_bits_16.exit

read_bits_16.exit:                                ; preds = %4
  tail call void (ptr, i32, ptr, ...) @archive_set_error(ptr noundef nonnull %0, i32 noundef 22, ptr noundef nonnull @.str.53) #15
  br label %82

11:                                               ; preds = %4
  %12 = getelementptr inbounds nuw i8, ptr %.val.val, i64 21264
  %13 = getelementptr inbounds i8, ptr %2, i64 %8
  %14 = load i8, ptr %13, align 1, !tbaa !26
  %15 = zext i8 %14 to i32
  %16 = shl nuw nsw i32 %15, 16
  %17 = getelementptr i8, ptr %13, i64 1
  %18 = load i8, ptr %17, align 1, !tbaa !26
  %19 = zext i8 %18 to i32
  %20 = shl nuw nsw i32 %19, 8
  %21 = or disjoint i32 %20, %16
  %22 = getelementptr i8, ptr %13, i64 2
  %23 = load i8, ptr %22, align 1, !tbaa !26
  %24 = zext i8 %23 to i32
  %25 = or disjoint i32 %21, %24
  %26 = load i8, ptr %12, align 8, !tbaa !105
  %27 = sext i8 %26 to i32
  %28 = sub nsw i32 8, %27
  %29 = lshr i32 %25, %28
  %30 = and i32 %29, 65534
  %31 = getelementptr inbounds nuw i8, ptr %1, i64 4
  %32 = getelementptr inbounds nuw i8, ptr %1, i64 132
  %33 = load i32, ptr %32, align 4, !tbaa !111
  %34 = zext i32 %33 to i64
  %35 = getelementptr inbounds nuw [16 x i32], ptr %31, i64 0, i64 %34
  %36 = load i32, ptr %35, align 4, !tbaa !82
  %37 = icmp sgt i32 %36, %30
  br i1 %37, label %38, label %.preheader

38:                                               ; preds = %11
  %39 = sub i32 16, %33
  %40 = lshr i32 %30, %39
  %41 = getelementptr inbounds nuw i8, ptr %1, i64 136
  %42 = zext nneg i32 %40 to i64
  %43 = getelementptr inbounds nuw [1024 x i8], ptr %41, i64 0, i64 %42
  %44 = load i8, ptr %43, align 1, !tbaa !26
  %45 = zext i8 %44 to i32
  %46 = add nsw i32 %27, %45
  %47 = ashr i32 %46, 3
  %48 = add nsw i32 %47, %7
  store i32 %48, ptr %6, align 4, !tbaa !104
  %49 = trunc i32 %46 to i8
  %50 = and i8 %49, 7
  store i8 %50, ptr %12, align 8, !tbaa !105
  %51 = getelementptr inbounds nuw i8, ptr %1, i64 1160
  %52 = getelementptr inbounds nuw [1024 x i16], ptr %51, i64 0, i64 %42
  %53 = load i16, ptr %52, align 2, !tbaa !108
  store i16 %53, ptr %3, align 2, !tbaa !108
  br label %82

.preheader:                                       ; preds = %11, %55
  %.034.in = phi i32 [ %.034, %55 ], [ %33, %11 ]
  %.034 = add i32 %.034.in, 1
  %54 = icmp slt i32 %.034, 15
  br i1 %54, label %55, label %.preheader._crit_edge

55:                                               ; preds = %.preheader
  %56 = sext i32 %.034 to i64
  %57 = getelementptr inbounds [16 x i32], ptr %31, i64 0, i64 %56
  %58 = load i32, ptr %57, align 4, !tbaa !82
  %59 = icmp sgt i32 %58, %30
  br i1 %59, label %.preheader._crit_edge, label %.preheader, !llvm.loop !112

.preheader._crit_edge:                            ; preds = %55, %.preheader
  %.035 = phi i32 [ 15, %.preheader ], [ %.034, %55 ]
  %60 = add nsw i32 %.035, %27
  %61 = ashr i32 %60, 3
  %62 = add nsw i32 %61, %7
  store i32 %62, ptr %6, align 4, !tbaa !104
  %63 = trunc i32 %60 to i8
  %64 = and i8 %63, 7
  store i8 %64, ptr %12, align 8, !tbaa !105
  %65 = add nsw i32 %.035, -1
  %66 = sext i32 %65 to i64
  %67 = getelementptr inbounds [16 x i32], ptr %31, i64 0, i64 %66
  %68 = load i32, ptr %67, align 4, !tbaa !82
  %69 = sub nsw i32 %30, %68
  %70 = sub nsw i32 16, %.035
  %71 = ashr i32 %69, %70
  %72 = getelementptr inbounds nuw i8, ptr %1, i64 68
  %73 = sext i32 %.035 to i64
  %74 = getelementptr inbounds [16 x i32], ptr %72, i64 0, i64 %73
  %75 = load i32, ptr %74, align 4, !tbaa !82
  %76 = add i32 %71, %75
  %77 = load i32, ptr %1, align 4, !tbaa !113
  %.not38 = icmp ult i32 %76, %77
  %spec.store.select = select i1 %.not38, i32 %76, i32 0
  %78 = getelementptr inbounds nuw i8, ptr %1, i64 3208
  %79 = zext i32 %spec.store.select to i64
  %80 = getelementptr inbounds nuw [306 x i16], ptr %78, i64 0, i64 %79
  %81 = load i16, ptr %80, align 2, !tbaa !108
  store i16 %81, ptr %3, align 2, !tbaa !108
  br label %82

82:                                               ; preds = %read_bits_16.exit, %.preheader._crit_edge, %38
  %.0 = phi i32 [ 0, %38 ], [ 0, %.preheader._crit_edge ], [ -30, %read_bits_16.exit ]
  ret i32 %.0
}